target datalayout = "e-m:e-p270:32:32-p271:32:32-p272:64:64-i64:64-i128:128-f80:128-n8:16:32:64-S128"
target triple = "x86_64-pc-linux-gnu"

%struct._cms_typehandler_struct = type { i32, ptr, ptr, ptr, ptr, ptr, i32 }
%struct._cms_io_handler = type { ptr, ptr, i32, i32, [256 x i8], ptr, ptr, ptr, ptr, ptr }

@.str.21 = private unnamed_addr constant [3 x i8] c"nm\00", align 1
@.str.22 = private unnamed_addr constant [3 x i8] c"#0\00", align 1
@.str.23 = private unnamed_addr constant [3 x i8] c"#1\00", align 1
@.str.24 = private unnamed_addr constant [3 x i8] c"#2\00", align 1
@.str.25 = private unnamed_addr constant [3 x i8] c"#3\00", align 1
@.str.26 = private unnamed_addr constant [3 x i8] c"PS\00", align 1

; Function Attrs: nounwind uwtable
define internal i32 @WriteCountAndString(ptr noundef %0, ptr noundef %1, ptr noundef %2, ptr noundef %3) #0 {
  %5 = alloca i32, align 4
  %6 = alloca ptr, align 8
  %7 = alloca ptr, align 8
  %8 = alloca ptr, align 8
  %9 = alloca ptr, align 8
  %10 = alloca i32, align 4
  %11 = alloca ptr, align 8
  store ptr %0, ptr %6, align 8
  store ptr %1, ptr %7, align 8
  store ptr %2, ptr %8, align 8
  store ptr %3, ptr %9, align 8
  %12 = load ptr, ptr %8, align 8
  %13 = load ptr, ptr %9, align 8
  %14 = call i32 @cmsMLUgetASCII(ptr noundef %12, ptr noundef @.str.26, ptr noundef %13, ptr noundef null, i32 noundef 0)
  store i32 %14, ptr %10, align 4
  %15 = load ptr, ptr %6, align 8
  %16 = getelementptr inbounds %struct._cms_typehandler_struct, ptr %15, i32 0, i32 5
  %17 = load ptr, ptr %16, align 8
  %18 = load i32, ptr %10, align 4
  %19 = call ptr @_cmsMalloc(ptr noundef %17, i32 noundef %18)
  store ptr %19, ptr %11, align 8
  %20 = load ptr, ptr %7, align 8
  %21 = load i32, ptr %10, align 4
  %22 = call i32 @_cmsWriteUInt32Number(ptr noundef %20, i32 noundef %21)
  %23 = icmp ne i32 %22, 0
  br i1 %23, label %25, label %24

24:                                               ; preds = %4
  store i32 0, ptr %5, align 4
  br label %48

25:                                               ; preds = %4
  %26 = load ptr, ptr %8, align 8
  %27 = load ptr, ptr %9, align 8
  %28 = load ptr, ptr %11, align 8
  %29 = load i32, ptr %10, align 4
  %30 = call i32 @cmsMLUgetASCII(ptr noundef %26, ptr noundef @.str.26, ptr noundef %27, ptr noundef %28, i32 noundef %29)
  %31 = icmp eq i32 %30, 0
  br i1 %31, label %32, label %33

32:                                               ; preds = %25
  store i32 0, ptr %5, align 4
  br label %48

33:                                               ; preds = %25
  %34 = load ptr, ptr %7, align 8
  %35 = getelementptr inbounds %struct._cms_io_handler, ptr %34, i32 0, i32 9
  %36 = load ptr, ptr %35, align 8
  %37 = load ptr, ptr %7, align 8
  %38 = load i32, ptr %10, align 4
  %39 = load ptr, ptr %11, align 8
  %40 = call i32 %36(ptr noundef %37, i32 noundef %38, ptr noundef %39)
  %41 = icmp ne i32 %40, 0
  br i1 %41, label %43, label %42

42:                                               ; preds = %33
  store i32 0, ptr %5, align 4
  br label %48

43:                                               ; preds = %33
  %44 = load ptr, ptr %6, align 8
  %45 = getelementptr inbounds %struct._cms_typehandler_struct, ptr %44, i32 0, i32 5
  %46 = load ptr, ptr %45, align 8
  %47 = load ptr, ptr %11, align 8
  call void @_cmsFree(ptr noundef %46, ptr noundef %47)
  store i32 1, ptr %5, align 4
  br label %48

48:                                               ; preds = %43, %42, %32, %24
  %49 = load i32, ptr %5, align 4
  ret i32 %49
}

; Function Attrs: nounwind uwtable
define internal i32 @Type_CrdInfo_Write(ptr noundef %0, ptr noundef %1, ptr noundef %2, i32 noundef %3) #0 {
  %5 = alloca i32, align 4
  %6 = alloca ptr, align 8
  %7 = alloca ptr, align 8
  %8 = alloca ptr, align 8
  %9 = alloca i32, align 4
  %10 = alloca ptr, align 8
  store ptr %0, ptr %6, align 8
  store ptr %1, ptr %7, align 8
  store ptr %2, ptr %8, align 8
  store i32 %3, ptr %9, align 4
  %11 = load ptr, ptr %8, align 8
  store ptr %11, ptr %10, align 8
  %12 = load ptr, ptr %6, align 8
  %13 = load ptr, ptr %7, align 8
  %14 = load ptr, ptr %10, align 8
  %15 = call i32 @WriteCountAndString(ptr noundef %12, ptr noundef %13, ptr noundef %14, ptr noundef @.str.21)
  %16 = icmp ne i32 %15, 0
  br i1 %16, label %18, label %17

17:                                               ; preds = %4
  br label %47

18:                                               ; preds = %4
  %19 = load ptr, ptr %6, align 8
  %20 = load ptr, ptr %7, align 8
  %21 = load ptr, ptr %10, align 8
  %22 = call i32 @WriteCountAndString(ptr noundef %19, ptr noundef %20, ptr noundef %21, ptr noundef @.str.22)
  %23 = icmp ne i32 %22, 0
  br i1 %23, label %25, label %24

24:                                               ; preds = %18
  br label %47

25:                                               ; preds = %18
  %26 = load ptr, ptr %6, align 8
  %27 = load ptr, ptr %7, align 8
  %28 = load ptr, ptr %10, align 8
  %29 = call i32 @WriteCountAndString(ptr noundef %26, ptr noundef %27, ptr noundef %28, ptr noundef @.str.23)
  %30 = icmp ne i32 %29, 0
  br i1 %30, label %32, label %31

31:                                               ; preds = %25
  br label %47

32:                                               ; preds = %25
  %33 = load ptr, ptr %6, align 8
  %34 = load ptr, ptr %7, align 8
  %35 = load ptr, ptr %10, align 8
  %36 = call i32 @WriteCountAndString(ptr noundef %33, ptr noundef %34, ptr noundef %35, ptr noundef @.str.24)
  %37 = icmp ne i32 %36, 0
  br i1 %37, label %39, label %38

38:                                               ; preds = %32
  br label %47

39:                                               ; preds = %32
  %40 = load ptr, ptr %6, align 8
  %41 = load ptr, ptr %7, align 8
  %42 = load ptr, ptr %10, align 8
  %43 = call i32 @WriteCountAndString(ptr noundef %40, ptr noundef %41, ptr noundef %42, ptr noundef @.str.25)
  %44 = icmp ne i32 %43, 0
  br i1 %44, label %46, label %45

45:                                               ; preds = %39
  br label %47

46:                                               ; preds = %39
  store i32 1, ptr %5, align 4
  br label %48

47:                                               ; preds = %45, %38, %31, %24, %17
  store i32 0, ptr %5, align 4
  br label %48

48:                                               ; preds = %47, %46
  %49 = load i32, ptr %5, align 4
  ret i32 %49
}