; Function Attrs: nounwind uwtable
define internal range(i32 0, 2) i32 @Type_CrdInfo_Write(ptr nocapture noundef readonly %0, ptr noundef %1, ptr noundef %2, i32 %3) #0 {
  %5 = tail call i32 @cmsMLUgetASCII(ptr noundef %2, ptr noundef nonnull @.str.26, ptr noundef nonnull @.str.21, ptr noundef null, i32 noundef 0) #13
  %6 = getelementptr inbounds i8, ptr %0, i64 40
  %7 = load ptr, ptr %6, align 8
  %8 = tail call ptr @_cmsMalloc(ptr noundef %7, i32 noundef %5) #13
  %9 = tail call i32 @_cmsWriteUInt32Number(ptr noundef %1, i32 noundef %5) #13
  %.not.i = icmp eq i32 %9, 0
  br i1 %.not.i, label %WriteCountAndString.exit.thread, label %10

10:                                               ; preds = %4
  %11 = tail call i32 @cmsMLUgetASCII(ptr noundef %2, ptr noundef nonnull @.str.26, ptr noundef nonnull @.str.21, ptr noundef %8, i32 noundef %5) #13
  %12 = icmp eq i32 %11, 0
  br i1 %12, label %WriteCountAndString.exit.thread, label %13

13:                                               ; preds = %10
  %14 = getelementptr inbounds i8, ptr %1, i64 312
  %15 = load ptr, ptr %14, align 8
  %16 = tail call i32 %15(ptr noundef %1, i32 noundef %5, ptr noundef %8) #13
  %.not16.i = icmp eq i32 %16, 0
  br i1 %.not16.i, label %WriteCountAndString.exit.thread, label %17

17:                                               ; preds = %13
  %18 = load ptr, ptr %6, align 8
  tail call void @_cmsFree(ptr noundef %18, ptr noundef %8) #13
  %19 = tail call i32 @cmsMLUgetASCII(ptr noundef %2, ptr noundef nonnull @.str.26, ptr noundef nonnull @.str.22, ptr noundef null, i32 noundef 0) #13
  %20 = load ptr, ptr %6, align 8
  %21 = tail call ptr @_cmsMalloc(ptr noundef %20, i32 noundef %19) #13
  %22 = tail call i32 @_cmsWriteUInt32Number(ptr noundef nonnull %1, i32 noundef %19) #13
  %.not.i20 = icmp eq i32 %22, 0
  br i1 %.not.i20, label %WriteCountAndString.exit.thread, label %23

23:                                               ; preds = %17
  %24 = tail call i32 @cmsMLUgetASCII(ptr noundef %2, ptr noundef nonnull @.str.26, ptr noundef nonnull @.str.22, ptr noundef %21, i32 noundef %19) #13
  %25 = icmp eq i32 %24, 0
  br i1 %25, label %WriteCountAndString.exit.thread, label %26

26:                                               ; preds = %23
  %27 = load ptr, ptr %14, align 8
  %28 = tail call i32 %27(ptr noundef nonnull %1, i32 noundef %19, ptr noundef %21) #13
  %.not16.i21 = icmp eq i32 %28, 0
  br i1 %.not16.i21, label %WriteCountAndString.exit.thread, label %29

29:                                               ; preds = %26
  %30 = load ptr, ptr %6, align 8
  tail call void @_cmsFree(ptr noundef %30, ptr noundef %21) #13
  %31 = tail call i32 @cmsMLUgetASCII(ptr noundef %2, ptr noundef nonnull @.str.26, ptr noundef nonnull @.str.23, ptr noundef null, i32 noundef 0) #13
  %32 = load ptr, ptr %6, align 8
  %33 = tail call ptr @_cmsMalloc(ptr noundef %32, i32 noundef %31) #13
  %34 = tail call i32 @_cmsWriteUInt32Number(ptr noundef nonnull %1, i32 noundef %31) #13
  %.not.i24 = icmp eq i32 %34, 0
  br i1 %.not.i24, label %WriteCountAndString.exit.thread, label %35

35:                                               ; preds = %29
  %36 = tail call i32 @cmsMLUgetASCII(ptr noundef %2, ptr noundef nonnull @.str.26, ptr noundef nonnull @.str.23, ptr noundef %33, i32 noundef %31) #13
  %37 = icmp eq i32 %36, 0
  br i1 %37, label %WriteCountAndString.exit.thread, label %38

38:                                               ; preds = %35
  %39 = load ptr, ptr %14, align 8
  %40 = tail call i32 %39(ptr noundef nonnull %1, i32 noundef %31, ptr noundef %33) #13
  %.not16.i25 = icmp eq i32 %40, 0
  br i1 %.not16.i25, label %WriteCountAndString.exit.thread, label %41

41:                                               ; preds = %38
  %42 = load ptr, ptr %6, align 8
  tail call void @_cmsFree(ptr noundef %42, ptr noundef %33) #13
  %43 = tail call i32 @cmsMLUgetASCII(ptr noundef %2, ptr noundef nonnull @.str.26, ptr noundef nonnull @.str.24, ptr noundef null, i32 noundef 0) #13
  %44 = load ptr, ptr %6, align 8
  %45 = tail call ptr @_cmsMalloc(ptr noundef %44, i32 noundef %43) #13
  %46 = tail call i32 @_cmsWriteUInt32Number(ptr noundef nonnull %1, i32 noundef %43) #13
  %.not.i28 = icmp eq i32 %46, 0
  br i1 %.not.i28, label %WriteCountAndString.exit.thread, label %47

47:                                               ; preds = %41
  %48 = tail call i32 @cmsMLUgetASCII(ptr noundef %2, ptr noundef nonnull @.str.26, ptr noundef nonnull @.str.24, ptr noundef %45, i32 noundef %43) #13
  %49 = icmp eq i32 %48, 0
  br i1 %49, label %WriteCountAndString.exit.thread, label %50

50:                                               ; preds = %47
  %51 = load ptr, ptr %14, align 8
  %52 = tail call i32 %51(ptr noundef nonnull %1, i32 noundef %43, ptr noundef %45) #13
  %.not16.i29 = icmp eq i32 %52, 0
  br i1 %.not16.i29, label %WriteCountAndString.exit.thread, label %53

53:                                               ; preds = %50
  %54 = load ptr, ptr %6, align 8
  tail call void @_cmsFree(ptr noundef %54, ptr noundef %45) #13
  %55 = tail call i32 @cmsMLUgetASCII(ptr noundef %2, ptr noundef nonnull @.str.26, ptr noundef nonnull @.str.25, ptr noundef null, i32 noundef 0) #13
  %56 = load ptr, ptr %6, align 8
  %57 = tail call ptr @_cmsMalloc(ptr noundef %56, i32 noundef %55) #13
  %58 = tail call i32 @_cmsWriteUInt32Number(ptr noundef nonnull %1, i32 noundef %55) #13
  %.not.i32 = icmp eq i32 %58, 0
  br i1 %.not.i32, label %WriteCountAndString.exit.thread, label %59

59:                                               ; preds = %53
  %60 = tail call i32 @cmsMLUgetASCII(ptr noundef %2, ptr noundef nonnull @.str.26, ptr noundef nonnull @.str.25, ptr noundef %57, i32 noundef %55) #13
  %61 = icmp eq i32 %60, 0
  br i1 %61, label %WriteCountAndString.exit.thread, label %62

62:                                               ; preds = %59
  %63 = load ptr, ptr %14, align 8
  %64 = tail call i32 %63(ptr noundef nonnull %1, i32 noundef %55, ptr noundef %57) #13
  %.not16.i33 = icmp eq i32 %64, 0
  br i1 %.not16.i33, label %WriteCountAndString.exit.thread, label %WriteCountAndString.exit35

WriteCountAndString.exit35:                       ; preds = %62
  %65 = load ptr, ptr %6, align 8
  tail call void @_cmsFree(ptr noundef %65, ptr noundef %57) #13
  br label %WriteCountAndString.exit.thread

WriteCountAndString.exit.thread:                  ; preds = %62, %59, %53, %50, %47, %41, %38, %35, %29, %26, %23, %17, %13, %10, %4, %WriteCountAndString.exit35
  %.0 = phi i32 [ 1, %WriteCountAndString.exit35 ], [ 0, %4 ], [ 0, %10 ], [ 0, %13 ], [ 0, %17 ], [ 0, %23 ], [ 0, %26 ], [ 0, %29 ], [ 0, %35 ], [ 0, %38 ], [ 0, %41 ], [ 0, %47 ], [ 0, %50 ], [ 0, %53 ], [ 0, %59 ], [ 0, %62 ]
  ret i32 %.0
}